target datalayout = "e-m:e-p270:32:32-p271:32:32-p272:64:64-i64:64-i128:128-f80:128-n8:16:32:64-S128"
target triple = "x86_64-pc-linux-gnu"

%struct.MvcCubeStruct = type { ptr, i32, i32, [1 x i32] }
%struct.MvcCoverStruct = type { i32, i32, i32, %struct.MvcListStruct, ptr, i32, ptr, ptr, ptr }
%struct.MvcListStruct = type { ptr, ptr, i32 }

; Function Attrs: nounwind uwtable
define void @Mvc_CoverCommonCube(ptr noundef %0, ptr noundef %1) #0 {
  %3 = alloca ptr, align 8
  %4 = alloca ptr, align 8
  %5 = alloca ptr, align 8
  %6 = alloca i32, align 4
  %7 = alloca i32, align 4
  store ptr %0, ptr %3, align 8, !tbaa !3
  store ptr %1, ptr %4, align 8, !tbaa !8
  call void @llvm.lifetime.start.p0(i64 8, ptr %5) #3
  %8 = load ptr, ptr %4, align 8, !tbaa !8
  %9 = getelementptr inbounds nuw %struct.MvcCubeStruct, ptr %8, i32 0, i32 1
  %10 = load i32, ptr %9, align 8
  %11 = and i32 %10, 16777215
  %12 = icmp eq i32 %11, 0
  br i1 %12, label %13, label %23

13:                                               ; preds = %2
  %14 = load ptr, ptr %4, align 8, !tbaa !8
  %15 = getelementptr inbounds nuw %struct.MvcCubeStruct, ptr %14, i32 0, i32 1
  %16 = load i32, ptr %15, align 8
  %17 = lshr i32 %16, 24
  %18 = and i32 %17, 63
  %19 = lshr i32 -1, %18
  %20 = load ptr, ptr %4, align 8, !tbaa !8
  %21 = getelementptr inbounds nuw %struct.MvcCubeStruct, ptr %20, i32 0, i32 3
  %22 = getelementptr inbounds [1 x i32], ptr %21, i64 0, i64 0
  store i32 %19, ptr %22, align 8, !tbaa !10
  br label %76

23:                                               ; preds = %2
  %24 = load ptr, ptr %4, align 8, !tbaa !8
  %25 = getelementptr inbounds nuw %struct.MvcCubeStruct, ptr %24, i32 0, i32 1
  %26 = load i32, ptr %25, align 8
  %27 = and i32 %26, 16777215
  %28 = icmp eq i32 %27, 1
  br i1 %28, label %29, label %42

29:                                               ; preds = %23
  %30 = load ptr, ptr %4, align 8, !tbaa !8
  %31 = getelementptr inbounds nuw %struct.MvcCubeStruct, ptr %30, i32 0, i32 3
  %32 = getelementptr inbounds [1 x i32], ptr %31, i64 0, i64 0
  store i32 -1, ptr %32, align 8, !tbaa !10
  %33 = load ptr, ptr %4, align 8, !tbaa !8
  %34 = getelementptr inbounds nuw %struct.MvcCubeStruct, ptr %33, i32 0, i32 1
  %35 = load i32, ptr %34, align 8
  %36 = lshr i32 %35, 24
  %37 = and i32 %36, 63
  %38 = lshr i32 -1, %37
  %39 = load ptr, ptr %4, align 8, !tbaa !8
  %40 = getelementptr inbounds nuw %struct.MvcCubeStruct, ptr %39, i32 0, i32 3
  %41 = getelementptr inbounds [1 x i32], ptr %40, i64 0, i64 1
  store i32 %38, ptr %41, align 4, !tbaa !10
  br label %75

42:                                               ; preds = %23
  call void @llvm.lifetime.start.p0(i64 4, ptr %6) #3
  %43 = load ptr, ptr %4, align 8, !tbaa !8
  %44 = getelementptr inbounds nuw %struct.MvcCubeStruct, ptr %43, i32 0, i32 1
  %45 = load i32, ptr %44, align 8
  %46 = lshr i32 %45, 24
  %47 = and i32 %46, 63
  %48 = lshr i32 -1, %47
  %49 = load ptr, ptr %4, align 8, !tbaa !8
  %50 = getelementptr inbounds nuw %struct.MvcCubeStruct, ptr %49, i32 0, i32 3
  %51 = load ptr, ptr %4, align 8, !tbaa !8
  %52 = getelementptr inbounds nuw %struct.MvcCubeStruct, ptr %51, i32 0, i32 1
  %53 = load i32, ptr %52, align 8
  %54 = and i32 %53, 16777215
  %55 = zext i32 %54 to i64
  %56 = getelementptr inbounds nuw [1 x i32], ptr %50, i64 0, i64 %55
  store i32 %48, ptr %56, align 4, !tbaa !10
  %57 = load ptr, ptr %4, align 8, !tbaa !8
  %58 = getelementptr inbounds nuw %struct.MvcCubeStruct, ptr %57, i32 0, i32 1
  %59 = load i32, ptr %58, align 8
  %60 = and i32 %59, 16777215
  %61 = sub nsw i32 %60, 1
  store i32 %61, ptr %6, align 4, !tbaa !10
  br label %62

62:                                               ; preds = %71, %42
  %63 = load i32, ptr %6, align 4, !tbaa !10
  %64 = icmp sge i32 %63, 0
  br i1 %64, label %65, label %74

65:                                               ; preds = %62
  %66 = load ptr, ptr %4, align 8, !tbaa !8
  %67 = getelementptr inbounds nuw %struct.MvcCubeStruct, ptr %66, i32 0, i32 3
  %68 = load i32, ptr %6, align 4, !tbaa !10
  %69 = sext i32 %68 to i64
  %70 = getelementptr inbounds [1 x i32], ptr %67, i64 0, i64 %69
  store i32 -1, ptr %70, align 4, !tbaa !10
  br label %71

71:                                               ; preds = %65
  %72 = load i32, ptr %6, align 4, !tbaa !10
  %73 = add nsw i32 %72, -1
  store i32 %73, ptr %6, align 4, !tbaa !10
  br label %62, !llvm.loop !29

74:                                               ; preds = %62
  call void @llvm.lifetime.end.p0(i64 4, ptr %6) #3
  br label %75

75:                                               ; preds = %74, %29
  br label %76

76:                                               ; preds = %75, %13
  %77 = load ptr, ptr %3, align 8, !tbaa !3
  %78 = getelementptr inbounds nuw %struct.MvcCoverStruct, ptr %77, i32 0, i32 3
  %79 = getelementptr inbounds nuw %struct.MvcListStruct, ptr %78, i32 0, i32 0
  %80 = load ptr, ptr %79, align 8, !tbaa !14
  store ptr %80, ptr %5, align 8, !tbaa !8
  br label %81

81:                                               ; preds = %167, %76
  %82 = load ptr, ptr %5, align 8, !tbaa !8
  %83 = icmp ne ptr %82, null
  br i1 %83, label %84, label %171

84:                                               ; preds = %81
  %85 = load ptr, ptr %4, align 8, !tbaa !8
  %86 = getelementptr inbounds nuw %struct.MvcCubeStruct, ptr %85, i32 0, i32 1
  %87 = load i32, ptr %86, align 8
  %88 = and i32 %87, 16777215
  %89 = icmp eq i32 %88, 0
  br i1 %89, label %90, label %103

90:                                               ; preds = %84
  %91 = load ptr, ptr %4, align 8, !tbaa !8
  %92 = getelementptr inbounds nuw %struct.MvcCubeStruct, ptr %91, i32 0, i32 3
  %93 = getelementptr inbounds [1 x i32], ptr %92, i64 0, i64 0
  %94 = load i32, ptr %93, align 8, !tbaa !10
  %95 = load ptr, ptr %5, align 8, !tbaa !8
  %96 = getelementptr inbounds nuw %struct.MvcCubeStruct, ptr %95, i32 0, i32 3
  %97 = getelementptr inbounds [1 x i32], ptr %96, i64 0, i64 0
  %98 = load i32, ptr %97, align 8, !tbaa !10
  %99 = and i32 %94, %98
  %100 = load ptr, ptr %4, align 8, !tbaa !8
  %101 = getelementptr inbounds nuw %struct.MvcCubeStruct, ptr %100, i32 0, i32 3
  %102 = getelementptr inbounds [1 x i32], ptr %101, i64 0, i64 0
  store i32 %99, ptr %102, align 8, !tbaa !10
  br label %166

103:                                              ; preds = %84
  %104 = load ptr, ptr %4, align 8, !tbaa !8
  %105 = getelementptr inbounds nuw %struct.MvcCubeStruct, ptr %104, i32 0, i32 1
  %106 = load i32, ptr %105, align 8
  %107 = and i32 %106, 16777215
  %108 = icmp eq i32 %107, 1
  br i1 %108, label %109, label %134

109:                                              ; preds = %103
  %110 = load ptr, ptr %4, align 8, !tbaa !8
  %111 = getelementptr inbounds nuw %struct.MvcCubeStruct, ptr %110, i32 0, i32 3
  %112 = getelementptr inbounds [1 x i32], ptr %111, i64 0, i64 0
  %113 = load i32, ptr %112, align 8, !tbaa !10
  %114 = load ptr, ptr %5, align 8, !tbaa !8
  %115 = getelementptr inbounds nuw %struct.MvcCubeStruct, ptr %114, i32 0, i32 3
  %116 = getelementptr inbounds [1 x i32], ptr %115, i64 0, i64 0
  %117 = load i32, ptr %116, align 8, !tbaa !10
  %118 = and i32 %113, %117
  %119 = load ptr, ptr %4, align 8, !tbaa !8
  %120 = getelementptr inbounds nuw %struct.MvcCubeStruct, ptr %119, i32 0, i32 3
  %121 = getelementptr inbounds [1 x i32], ptr %120, i64 0, i64 0
  store i32 %118, ptr %121, align 8, !tbaa !10
  %122 = load ptr, ptr %4, align 8, !tbaa !8
  %123 = getelementptr inbounds nuw %struct.MvcCubeStruct, ptr %122, i32 0, i32 3
  %124 = getelementptr inbounds [1 x i32], ptr %123, i64 0, i64 1
  %125 = load i32, ptr %124, align 4, !tbaa !10
  %126 = load ptr, ptr %5, align 8, !tbaa !8
  %127 = getelementptr inbounds nuw %struct.MvcCubeStruct, ptr %126, i32 0, i32 3
  %128 = getelementptr inbounds [1 x i32], ptr %127, i64 0, i64 1
  %129 = load i32, ptr %128, align 4, !tbaa !10
  %130 = and i32 %125, %129
  %131 = load ptr, ptr %4, align 8, !tbaa !8
  %132 = getelementptr inbounds nuw %struct.MvcCubeStruct, ptr %131, i32 0, i32 3
  %133 = getelementptr inbounds [1 x i32], ptr %132, i64 0, i64 1
  store i32 %130, ptr %133, align 4, !tbaa !10
  br label %165

134:                                              ; preds = %103
  call void @llvm.lifetime.start.p0(i64 4, ptr %7) #3
  %135 = load ptr, ptr %4, align 8, !tbaa !8
  %136 = getelementptr inbounds nuw %struct.MvcCubeStruct, ptr %135, i32 0, i32 1
  %137 = load i32, ptr %136, align 8
  %138 = and i32 %137, 16777215
  store i32 %138, ptr %7, align 4, !tbaa !10
  br label %139

139:                                              ; preds = %161, %134
  %140 = load i32, ptr %7, align 4, !tbaa !10
  %141 = icmp sge i32 %140, 0
  br i1 %141, label %142, label %164

142:                                              ; preds = %139
  %143 = load ptr, ptr %4, align 8, !tbaa !8
  %144 = getelementptr inbounds nuw %struct.MvcCubeStruct, ptr %143, i32 0, i32 3
  %145 = load i32, ptr %7, align 4, !tbaa !10
  %146 = sext i32 %145 to i64
  %147 = getelementptr inbounds [1 x i32], ptr %144, i64 0, i64 %146
  %148 = load i32, ptr %147, align 4, !tbaa !10
  %149 = load ptr, ptr %5, align 8, !tbaa !8
  %150 = getelementptr inbounds nuw %struct.MvcCubeStruct, ptr %149, i32 0, i32 3
  %151 = load i32, ptr %7, align 4, !tbaa !10
  %152 = sext i32 %151 to i64
  %153 = getelementptr inbounds [1 x i32], ptr %150, i64 0, i64 %152
  %154 = load i32, ptr %153, align 4, !tbaa !10
  %155 = and i32 %148, %154
  %156 = load ptr, ptr %4, align 8, !tbaa !8
  %157 = getelementptr inbounds nuw %struct.MvcCubeStruct, ptr %156, i32 0, i32 3
  %158 = load i32, ptr %7, align 4, !tbaa !10
  %159 = sext i32 %158 to i64
  %160 = getelementptr inbounds [1 x i32], ptr %157, i64 0, i64 %159
  store i32 %155, ptr %160, align 4, !tbaa !10
  br label %161

161:                                              ; preds = %142
  %162 = load i32, ptr %7, align 4, !tbaa !10
  %163 = add nsw i32 %162, -1
  store i32 %163, ptr %7, align 4, !tbaa !10
  br label %139, !llvm.loop !30

164:                                              ; preds = %139
  call void @llvm.lifetime.end.p0(i64 4, ptr %7) #3
  br label %165

165:                                              ; preds = %164, %109
  br label %166

166:                                              ; preds = %165, %90
  br label %167

167:                                              ; preds = %166
  %168 = load ptr, ptr %5, align 8, !tbaa !8
  %169 = getelementptr inbounds nuw %struct.MvcCubeStruct, ptr %168, i32 0, i32 0
  %170 = load ptr, ptr %169, align 8, !tbaa !21
  store ptr %170, ptr %5, align 8, !tbaa !8
  br label %81, !llvm.loop !31

171:                                              ; preds = %81
  call void @llvm.lifetime.end.p0(i64 8, ptr %5) #3
  ret void
}