; Function Attrs: nofree norecurse nosync nounwind memory(read, argmem: readwrite, inaccessiblemem: none) uwtable
define void @Mvc_CoverCommonCube(ptr noundef readonly captures(none) %0, ptr noundef captures(none) %1) local_unnamed_addr #0 {
  %3 = getelementptr inbounds nuw i8, ptr %1, i64 8
  %4 = load i32, ptr %3, align 8
  %5 = and i32 %4, 16777215
  switch i32 %5, label %.lr.ph.preheader [
    i32 0, label %6
    i32 1, label %11
  ]

6:                                                ; preds = %2
  %7 = lshr exact i32 %4, 24
  %8 = and i32 %7, 63
  %9 = lshr i32 -1, %8
  %10 = getelementptr inbounds nuw i8, ptr %1, i64 16
  store i32 %9, ptr %10, align 8, !tbaa !3
  br label %.loopexit41

11:                                               ; preds = %2
  %12 = getelementptr inbounds nuw i8, ptr %1, i64 16
  store i32 -1, ptr %12, align 8, !tbaa !3
  %13 = lshr i32 %4, 24
  %14 = and i32 %13, 63
  %15 = lshr i32 -1, %14
  %16 = getelementptr inbounds nuw i8, ptr %1, i64 20
  store i32 %15, ptr %16, align 4, !tbaa !3
  br label %.loopexit41

.lr.ph.preheader:                                 ; preds = %2
  %17 = lshr i32 %4, 24
  %18 = and i32 %17, 63
  %19 = lshr i32 -1, %18
  %20 = getelementptr inbounds nuw i8, ptr %1, i64 16
  %21 = zext nneg i32 %5 to i64
  %22 = getelementptr inbounds nuw [1 x i32], ptr %20, i64 0, i64 %21
  store i32 %19, ptr %22, align 4, !tbaa !3
  %23 = shl i32 %4, 2
  %24 = and i32 %23, 67108860
  %25 = zext nneg i32 %24 to i64
  tail call void @llvm.memset.p0.i64(ptr nonnull align 4 %20, i8 -1, i64 %25, i1 false), !tbaa !3
  br label %.loopexit41

.loopexit41:                                      ; preds = %.lr.ph.preheader, %11, %6
  %26 = getelementptr inbounds nuw i8, ptr %0, i64 16
  %.03844 = load ptr, ptr %26, align 8, !tbaa !7
  %.not45 = icmp eq ptr %.03844, null
  br i1 %.not45, label %._crit_edge, label %.lr.ph47

.lr.ph47:                                         ; preds = %.loopexit41
  %27 = getelementptr inbounds nuw i8, ptr %1, i64 16
  %28 = getelementptr inbounds nuw i8, ptr %1, i64 20
  switch i32 %5, label %.preheader.preheader [
    i32 0, label %.lr.ph47.split.us
    i32 1, label %.lr.ph47.split.us48
  ]

.preheader.preheader:                             ; preds = %.lr.ph47
  %29 = and i32 %4, 16777215
  %30 = zext nneg i32 %29 to i64
  br label %.preheader

.lr.ph47.split.us:                                ; preds = %.lr.ph47
  %.promoted = load i32, ptr %27, align 8, !tbaa !3
  br label %31

31:                                               ; preds = %31, %.lr.ph47.split.us
  %32 = phi i32 [ %.promoted, %.lr.ph47.split.us ], [ %35, %31 ]
  %.03846.us = phi ptr [ %.03844, %.lr.ph47.split.us ], [ %.038.us, %31 ]
  %33 = getelementptr inbounds nuw i8, ptr %.03846.us, i64 16
  %34 = load i32, ptr %33, align 8, !tbaa !3
  %35 = and i32 %34, %32
  store i32 %35, ptr %27, align 8, !tbaa !3
  %.038.us = load ptr, ptr %.03846.us, align 8, !tbaa !7
  %.not.us = icmp eq ptr %.038.us, null
  br i1 %.not.us, label %._crit_edge, label %31, !llvm.loop !22

.lr.ph47.split.us48:                              ; preds = %.lr.ph47
  %.promoted52 = load i32, ptr %27, align 8, !tbaa !3
  %.promoted53 = load i32, ptr %28, align 4, !tbaa !3
  br label %36

36:                                               ; preds = %36, %.lr.ph47.split.us48
  %37 = phi i32 [ %.promoted53, %.lr.ph47.split.us48 ], [ %44, %36 ]
  %38 = phi i32 [ %.promoted52, %.lr.ph47.split.us48 ], [ %41, %36 ]
  %.03846.us49 = phi ptr [ %.03844, %.lr.ph47.split.us48 ], [ %.038.us50, %36 ]
  %39 = getelementptr inbounds nuw i8, ptr %.03846.us49, i64 16
  %40 = load i32, ptr %39, align 8, !tbaa !3
  %41 = and i32 %40, %38
  store i32 %41, ptr %27, align 8, !tbaa !3
  %42 = getelementptr inbounds nuw i8, ptr %.03846.us49, i64 20
  %43 = load i32, ptr %42, align 4, !tbaa !3
  %44 = and i32 %43, %37
  store i32 %44, ptr %28, align 4, !tbaa !3
  %.038.us50 = load ptr, ptr %.03846.us49, align 8, !tbaa !7
  %.not.us51 = icmp eq ptr %.038.us50, null
  br i1 %.not.us51, label %._crit_edge, label %36, !llvm.loop !22

.preheader:                                       ; preds = %.preheader.preheader, %.loopexit
  %.03846 = phi ptr [ %.038, %.loopexit ], [ %.03844, %.preheader.preheader ]
  %45 = getelementptr inbounds nuw i8, ptr %.03846, i64 16
  br label %46

46:                                               ; preds = %.preheader, %46
  %indvars.iv = phi i64 [ %30, %.preheader ], [ %indvars.iv.next, %46 ]
  %47 = getelementptr inbounds nuw [1 x i32], ptr %27, i64 0, i64 %indvars.iv
  %48 = load i32, ptr %47, align 4, !tbaa !3
  %49 = getelementptr inbounds nuw [1 x i32], ptr %45, i64 0, i64 %indvars.iv
  %50 = load i32, ptr %49, align 4, !tbaa !3
  %51 = and i32 %50, %48
  store i32 %51, ptr %47, align 4, !tbaa !3
  %indvars.iv.next = add nsw i64 %indvars.iv, -1
  %52 = icmp sgt i64 %indvars.iv, 0
  br i1 %52, label %46, label %.loopexit, !llvm.loop !23

.loopexit:                                        ; preds = %46
  %.038 = load ptr, ptr %.03846, align 8, !tbaa !7
  %.not = icmp eq ptr %.038, null
  br i1 %.not, label %._crit_edge, label %.preheader, !llvm.loop !22

._crit_edge:                                      ; preds = %36, %31, %.loopexit, %.loopexit41
  ret void
}